target datalayout = "e-m:e-p270:32:32-p271:32:32-p272:64:64-i64:64-i128:128-f80:128-n8:16:32:64-S128"
target triple = "x86_64-pc-linux-gnu"

%struct._zend_array = type { %struct._zend_refcounted_h, %union.anon.0, i32, %union.anon.1, i32, i32, i32, i32, i64, ptr }
%struct._zend_refcounted_h = type { i32, %union.anon }
%union.anon = type { i32 }
%union.anon.0 = type { i32 }
%union.anon.1 = type { ptr }
%struct._zval_struct = type { %union._zend_value, %union.anon.3, %union.anon.6 }
%union._zend_value = type { i64 }
%union.anon.3 = type { i32 }
%union.anon.6 = type { i32 }
%struct._Bucket = type { %struct._zval_struct, i64, ptr }

; Function Attrs: nounwind uwtable
define void @zend_hash_internal_pointer_reset_ex(ptr noundef %0, ptr noundef %1) #0 {
  %3 = alloca ptr, align 8
  %4 = alloca ptr, align 8
  %5 = alloca ptr, align 8
  %6 = alloca i32, align 4
  %7 = alloca ptr, align 8
  %8 = alloca ptr, align 8
  store ptr %0, ptr %7, align 8
  store ptr %1, ptr %8, align 8
  %9 = load ptr, ptr %7, align 8
  store ptr %9, ptr %5, align 8
  store i32 0, ptr %6, align 4
  %10 = load ptr, ptr %5, align 8
  %11 = getelementptr inbounds %struct._zend_array, ptr %10, i32 0, i32 1
  %12 = load i32, ptr %11, align 8
  %13 = and i32 %12, 4
  %14 = icmp ne i32 %13, 0
  br i1 %14, label %15, label %40

15:                                               ; preds = %2
  br label %16

16:                                               ; preds = %36, %15
  %17 = load i32, ptr %6, align 4
  %18 = load ptr, ptr %5, align 8
  %19 = getelementptr inbounds %struct._zend_array, ptr %18, i32 0, i32 4
  %20 = load i32, ptr %19, align 8
  %21 = icmp ult i32 %17, %20
  br i1 %21, label %22, label %34

22:                                               ; preds = %16
  %23 = load ptr, ptr %5, align 8
  %24 = getelementptr inbounds %struct._zend_array, ptr %23, i32 0, i32 3
  %25 = load ptr, ptr %24, align 8
  %26 = load i32, ptr %6, align 4
  %27 = zext i32 %26 to i64
  %28 = getelementptr inbounds %struct._zval_struct, ptr %25, i64 %27
  store ptr %28, ptr %3, align 8
  %29 = load ptr, ptr %3, align 8
  %30 = getelementptr inbounds %struct._zval_struct, ptr %29, i32 0, i32 1
  %31 = load i8, ptr %30, align 8
  %32 = zext i8 %31 to i32
  %33 = icmp eq i32 %32, 0
  br label %34

34:                                               ; preds = %22, %16
  %35 = phi i1 [ false, %16 ], [ %33, %22 ]
  br i1 %35, label %36, label %39

36:                                               ; preds = %34
  %37 = load i32, ptr %6, align 4
  %38 = add i32 %37, 1
  store i32 %38, ptr %6, align 4
  br label %16

39:                                               ; preds = %34
  br label %65

40:                                               ; preds = %2
  br label %41

41:                                               ; preds = %61, %40
  %42 = load i32, ptr %6, align 4
  %43 = load ptr, ptr %5, align 8
  %44 = getelementptr inbounds %struct._zend_array, ptr %43, i32 0, i32 4
  %45 = load i32, ptr %44, align 8
  %46 = icmp ult i32 %42, %45
  br i1 %46, label %47, label %59

47:                                               ; preds = %41
  %48 = load ptr, ptr %5, align 8
  %49 = getelementptr inbounds %struct._zend_array, ptr %48, i32 0, i32 3
  %50 = load ptr, ptr %49, align 8
  %51 = load i32, ptr %6, align 4
  %52 = zext i32 %51 to i64
  %53 = getelementptr inbounds %struct._Bucket, ptr %50, i64 %52
  store ptr %53, ptr %4, align 8
  %54 = load ptr, ptr %4, align 8
  %55 = getelementptr inbounds %struct._zval_struct, ptr %54, i32 0, i32 1
  %56 = load i8, ptr %55, align 8
  %57 = zext i8 %56 to i32
  %58 = icmp eq i32 %57, 0
  br label %59

59:                                               ; preds = %47, %41
  %60 = phi i1 [ false, %41 ], [ %58, %47 ]
  br i1 %60, label %61, label %64

61:                                               ; preds = %59
  %62 = load i32, ptr %6, align 4
  %63 = add i32 %62, 1
  store i32 %63, ptr %6, align 4
  br label %41

64:                                               ; preds = %59
  br label %65

65:                                               ; preds = %64, %39
  %66 = load i32, ptr %6, align 4
  %67 = load ptr, ptr %8, align 8
  store i32 %66, ptr %67, align 4
  ret void
}