; Function Attrs: nofree norecurse nosync nounwind memory(read, argmem: readwrite, inaccessiblemem: none) uwtable
define void @zend_hash_internal_pointer_reset_ex(ptr nocapture noundef readonly %0, ptr nocapture noundef writeonly %1) local_unnamed_addr #19 {
  %3 = getelementptr inbounds i8, ptr %0, i64 8
  %4 = load i32, ptr %3, align 8
  %5 = and i32 %4, 4
  %.not = icmp eq i32 %5, 0
  %6 = getelementptr inbounds i8, ptr %0, i64 24
  %7 = load i32, ptr %6, align 8
  %.not28 = icmp eq i32 %7, 0
  br i1 %.not, label %.preheader, label %.preheader17

.preheader17:                                     ; preds = %2
  br i1 %.not28, label %.critedge, label %.lr.ph

.lr.ph:                                           ; preds = %.preheader17
  %8 = getelementptr inbounds i8, ptr %0, i64 16
  %9 = load ptr, ptr %8, align 8
  br label %12

.preheader:                                       ; preds = %2
  br i1 %.not28, label %.critedge, label %.lr.ph23

.lr.ph23:                                         ; preds = %.preheader
  %10 = getelementptr inbounds i8, ptr %0, i64 16
  %11 = load ptr, ptr %10, align 8
  %wide.trip.count = zext i32 %7 to i64
  br label %19

12:                                               ; preds = %.lr.ph, %17
  %.019 = phi i32 [ 0, %.lr.ph ], [ %18, %17 ]
  %13 = zext i32 %.019 to i64
  %14 = getelementptr inbounds %struct._zval_struct, ptr %9, i64 %13, i32 1
  %15 = load i8, ptr %14, align 8
  %16 = icmp eq i8 %15, 0
  br i1 %16, label %17, label %.critedge

17:                                               ; preds = %12
  %18 = add nuw i32 %.019, 1
  %exitcond.not = icmp eq i32 %18, %7
  br i1 %exitcond.not, label %.critedge, label %12

19:                                               ; preds = %.lr.ph23, %23
  %indvars.iv = phi i64 [ 0, %.lr.ph23 ], [ %indvars.iv.next, %23 ]
  %20 = getelementptr inbounds %struct._Bucket, ptr %11, i64 %indvars.iv, i32 0, i32 1
  %21 = load i8, ptr %20, align 8
  %22 = icmp eq i8 %21, 0
  br i1 %22, label %23, label %.critedge.loopexit.split.loop.exit

23:                                               ; preds = %19
  %indvars.iv.next = add nuw nsw i64 %indvars.iv, 1
  %exitcond32.not = icmp eq i64 %indvars.iv.next, %wide.trip.count
  br i1 %exitcond32.not, label %.critedge, label %19

.critedge.loopexit.split.loop.exit:               ; preds = %19
  %24 = trunc i64 %indvars.iv to i32
  br label %.critedge

.critedge:                                        ; preds = %17, %12, %23, %.critedge.loopexit.split.loop.exit, %.preheader17, %.preheader
  %.2 = phi i32 [ 0, %.preheader ], [ 0, %.preheader17 ], [ %24, %.critedge.loopexit.split.loop.exit ], [ %7, %23 ], [ %7, %17 ], [ %.019, %12 ]
  store i32 %.2, ptr %1, align 4
  ret void
}